target datalayout = "e-m:e-p270:32:32-p271:32:32-p272:64:64-i64:64-i128:128-f80:128-n8:16:32:64-S128"
target triple = "x86_64-unknown-linux-gnu"

%struct.tinfl_decompressor_tag = type { i32, i32, i32, i32, i32, i32, i32, i32, i32, i32, i32, [3 x i32], i64, i64, [3 x %struct.tinfl_huff_table], [4 x i8], [457 x i8] }
%struct.tinfl_huff_table = type { [288 x i8], [1024 x i16], [576 x i16] }

; Function Attrs: nounwind uwtable
define hidden i32 @tinfl_decompress_mem_to_callback(ptr noundef %pIn_buf, ptr noundef %pIn_buf_size, ptr noundef %pPut_buf_func, ptr noundef %pPut_buf_user, i32 noundef %flags) #0 {
entry:
  %retval = alloca i32, align 4
  %pIn_buf.addr = alloca ptr, align 8
  %pIn_buf_size.addr = alloca ptr, align 8
  %pPut_buf_func.addr = alloca ptr, align 8
  %pPut_buf_user.addr = alloca ptr, align 8
  %flags.addr = alloca i32, align 4
  %result = alloca i32, align 4
  %decomp = alloca %struct.tinfl_decompressor_tag, align 8
  %pDict = alloca ptr, align 8
  %in_buf_ofs = alloca i64, align 8
  %dict_ofs = alloca i64, align 8
  %in_buf_size = alloca i64, align 8
  %dst_buf_size = alloca i64, align 8
  %status = alloca i32, align 4
  store ptr %pIn_buf, ptr %pIn_buf.addr, align 8
  store ptr %pIn_buf_size, ptr %pIn_buf_size.addr, align 8
  store ptr %pPut_buf_func, ptr %pPut_buf_func.addr, align 8
  store ptr %pPut_buf_user, ptr %pPut_buf_user.addr, align 8
  store i32 %flags, ptr %flags.addr, align 4
  store i32 0, ptr %result, align 4
  %call = call noalias ptr @malloc(i64 noundef 32768) #11
  store ptr %call, ptr %pDict, align 8
  store i64 0, ptr %in_buf_ofs, align 8
  store i64 0, ptr %dict_ofs, align 8
  %0 = load ptr, ptr %pDict, align 8
  %tobool = icmp ne ptr %0, null
  br i1 %tobool, label %if.end, label %if.then

if.then:                                          ; preds = %entry
  store i32 -1, ptr %retval, align 4
  br label %return

if.end:                                           ; preds = %entry
  br label %do.body

do.body:                                          ; preds = %if.end
  %m_state = getelementptr inbounds %struct.tinfl_decompressor_tag, ptr %decomp, i32 0, i32 0
  store i32 0, ptr %m_state, align 8
  br label %do.end

do.end:                                           ; preds = %do.body
  br label %for.cond

for.cond:                                         ; preds = %if.end14, %do.end
  %1 = load ptr, ptr %pIn_buf_size.addr, align 8
  %2 = load i64, ptr %1, align 8
  %3 = load i64, ptr %in_buf_ofs, align 8
  %sub = sub i64 %2, %3
  store i64 %sub, ptr %in_buf_size, align 8
  %4 = load i64, ptr %dict_ofs, align 8
  %sub1 = sub i64 32768, %4
  store i64 %sub1, ptr %dst_buf_size, align 8
  %5 = load ptr, ptr %pIn_buf.addr, align 8
  %6 = load i64, ptr %in_buf_ofs, align 8
  %add.ptr = getelementptr inbounds i8, ptr %5, i64 %6
  %7 = load ptr, ptr %pDict, align 8
  %8 = load ptr, ptr %pDict, align 8
  %9 = load i64, ptr %dict_ofs, align 8
  %add.ptr2 = getelementptr inbounds i8, ptr %8, i64 %9
  %10 = load i32, ptr %flags.addr, align 4
  %and = and i32 %10, -7
  %call3 = call i32 @tinfl_decompress(ptr noundef %decomp, ptr noundef %add.ptr, ptr noundef %in_buf_size, ptr noundef %7, ptr noundef %add.ptr2, ptr noundef %dst_buf_size, i32 noundef %and)
  store i32 %call3, ptr %status, align 4
  %11 = load i64, ptr %in_buf_size, align 8
  %12 = load i64, ptr %in_buf_ofs, align 8
  %add = add i64 %12, %11
  store i64 %add, ptr %in_buf_ofs, align 8
  %13 = load i64, ptr %dst_buf_size, align 8
  %tobool4 = icmp ne i64 %13, 0
  br i1 %tobool4, label %land.lhs.true, label %if.end9

land.lhs.true:                                    ; preds = %for.cond
  %14 = load ptr, ptr %pPut_buf_func.addr, align 8
  %15 = load ptr, ptr %pDict, align 8
  %16 = load i64, ptr %dict_ofs, align 8
  %add.ptr5 = getelementptr inbounds i8, ptr %15, i64 %16
  %17 = load i64, ptr %dst_buf_size, align 8
  %conv = trunc i64 %17 to i32
  %18 = load ptr, ptr %pPut_buf_user.addr, align 8
  %call6 = call i32 %14(ptr noundef %add.ptr5, i32 noundef %conv, ptr noundef %18)
  %tobool7 = icmp ne i32 %call6, 0
  br i1 %tobool7, label %if.end9, label %if.then8

if.then8:                                         ; preds = %land.lhs.true
  br label %for.end

if.end9:                                          ; preds = %land.lhs.true, %for.cond
  %19 = load i32, ptr %status, align 4
  %cmp = icmp ne i32 %19, 2
  br i1 %cmp, label %if.then11, label %if.end14

if.then11:                                        ; preds = %if.end9
  %20 = load i32, ptr %status, align 4
  %cmp12 = icmp eq i32 %20, 0
  %conv13 = zext i1 %cmp12 to i32
  store i32 %conv13, ptr %result, align 4
  br label %for.end

if.end14:                                         ; preds = %if.end9
  %21 = load i64, ptr %dict_ofs, align 8
  %22 = load i64, ptr %dst_buf_size, align 8
  %add15 = add i64 %21, %22
  %and16 = and i64 %add15, 32767
  store i64 %and16, ptr %dict_ofs, align 8
  br label %for.cond

for.end:                                          ; preds = %if.then11, %if.then8
  %23 = load ptr, ptr %pDict, align 8
  call void @free(ptr noundef %23) #10
  %24 = load i64, ptr %in_buf_ofs, align 8
  %25 = load ptr, ptr %pIn_buf_size.addr, align 8
  store i64 %24, ptr %25, align 8
  %26 = load i32, ptr %result, align 4
  store i32 %26, ptr %retval, align 4
  br label %return

return:                                           ; preds = %for.end, %if.then
  %27 = load i32, ptr %retval, align 4
  ret i32 %27
}