; Function Attrs: nounwind uwtable
define hidden range(i32 -1, 2) i32 @tinfl_decompress_mem_to_callback(ptr noundef %pIn_buf, ptr noundef captures(none) %pIn_buf_size, ptr noundef readonly captures(none) %pPut_buf_func, ptr noundef %pPut_buf_user, i32 noundef %flags) local_unnamed_addr #4 {
entry:
  %decomp = alloca %struct.tinfl_decompressor_tag, align 8
  %in_buf_size = alloca i64, align 8
  %dst_buf_size = alloca i64, align 8
  %call = tail call noalias dereferenceable_or_null(32768) ptr @malloc(i64 noundef 32768) #31
  %tobool.not = icmp eq ptr %call, null
  br i1 %tobool.not, label %return, label %do.body

do.body:                                          ; preds = %entry
  store i32 0, ptr %decomp, align 8
  %and = and i32 %flags, -7
  br label %for.cond

for.cond:                                         ; preds = %if.end14, %do.body
  %in_buf_ofs.0 = phi i64 [ 0, %do.body ], [ %add, %if.end14 ]
  %dict_ofs.0 = phi i64 [ 0, %do.body ], [ %and16, %if.end14 ]
  %0 = load i64, ptr %pIn_buf_size, align 8
  %sub = sub i64 %0, %in_buf_ofs.0
  store i64 %sub, ptr %in_buf_size, align 8
  %sub1 = sub nuw nsw i64 32768, %dict_ofs.0
  store i64 %sub1, ptr %dst_buf_size, align 8
  %add.ptr = getelementptr inbounds i8, ptr %pIn_buf, i64 %in_buf_ofs.0
  %add.ptr2 = getelementptr inbounds nuw i8, ptr %call, i64 %dict_ofs.0
  %call3 = call i32 @tinfl_decompress(ptr noundef nonnull %decomp, ptr noundef %add.ptr, ptr noundef nonnull %in_buf_size, ptr noundef nonnull %call, ptr noundef nonnull %add.ptr2, ptr noundef nonnull %dst_buf_size, i32 noundef %and)
  %1 = load i64, ptr %in_buf_size, align 8
  %add = add i64 %1, %in_buf_ofs.0
  %2 = load i64, ptr %dst_buf_size, align 8
  %tobool4.not = icmp eq i64 %2, 0
  br i1 %tobool4.not, label %if.end9, label %land.lhs.true

land.lhs.true:                                    ; preds = %for.cond
  %conv = trunc i64 %2 to i32
  %call6 = call i32 %pPut_buf_func(ptr noundef nonnull %add.ptr2, i32 noundef %conv, ptr noundef %pPut_buf_user) #30
  %tobool7.not = icmp eq i32 %call6, 0
  br i1 %tobool7.not, label %for.end, label %if.end9

if.end9:                                          ; preds = %land.lhs.true, %for.cond
  %cmp.not = icmp eq i32 %call3, 2
  br i1 %cmp.not, label %if.end14, label %if.then11

if.then11:                                        ; preds = %if.end9
  %cmp12 = icmp eq i32 %call3, 0
  %conv13 = zext i1 %cmp12 to i32
  br label %for.end

if.end14:                                         ; preds = %if.end9
  %add15 = add i64 %2, %dict_ofs.0
  %and16 = and i64 %add15, 32767
  br label %for.cond

for.end:                                          ; preds = %land.lhs.true, %if.then11
  %result.0 = phi i32 [ %conv13, %if.then11 ], [ 0, %land.lhs.true ]
  call void @free(ptr noundef %call) #30
  store i64 %add, ptr %pIn_buf_size, align 8
  br label %return

return:                                           ; preds = %entry, %for.end
  %retval.0 = phi i32 [ %result.0, %for.end ], [ -1, %entry ]
  ret i32 %retval.0
}